; Function Attrs: nounwind uwtable
define internal fastcc noalias nonnull ptr @_init_l_Lake_buildLeanO___lambda__6___closed__3() unnamed_addr #0 {
  %1 = load ptr, ptr @l_Lake_buildLeanO___lambda__6___closed__1, align 8, !tbaa !9
  %2 = load ptr, ptr @l_Lake_buildLeanO___lambda__6___closed__2, align 8, !tbaa !9
  tail call void @lean_inc_heartbeat() #5
  %3 = tail call noalias ptr @mi_malloc_small(i64 noundef 40) #5
  %4 = icmp eq ptr %3, null
  br i1 %4, label %5, label %lean_alloc_closure.exit

5:                                                ; preds = %0
  tail call void @lean_internal_panic_out_of_memory() #6
  unreachable

lean_alloc_closure.exit:                          ; preds = %0
  %6 = getelementptr inbounds nuw i8, ptr %3, i64 4
  store i32 1, ptr %3, align 4, !tbaa !4
  store i32 -184549336, ptr %6, align 4
  %7 = getelementptr inbounds nuw i8, ptr %3, i64 8
  store ptr @l_Lake_EquipT_map___at_Lake_instMonadStateOfLogJobM___spec__1___rarg, ptr %7, align 8, !tbaa !9
  %8 = getelementptr inbounds nuw i8, ptr %3, i64 16
  store i16 8, ptr %8, align 8, !tbaa !15
  %9 = getelementptr inbounds nuw i8, ptr %3, i64 18
  store i16 2, ptr %9, align 2, !tbaa !15
  %10 = getelementptr inbounds nuw i8, ptr %3, i64 24
  store ptr %1, ptr %10, align 8, !tbaa !9
  %11 = getelementptr inbounds nuw i8, ptr %3, i64 32
  store ptr %2, ptr %11, align 8, !tbaa !9
  ret ptr %3
}